target datalayout = "e-m:e-p270:32:32-p271:32:32-p272:64:64-i64:64-i128:128-f80:128-n8:16:32:64-S128"
target triple = "x86_64-pc-linux-gnu"

%struct.cbb_st = type { ptr, ptr, i64, i8, i8, i8 }

; Function Attrs: nounwind uwtable
define internal i32 @pkcs7_bundle_certificates_cb(ptr noundef %0, ptr noundef %1) #0 {
  %3 = alloca i32, align 4
  %4 = alloca ptr, align 8
  %5 = alloca ptr, align 8
  %6 = alloca ptr, align 8
  %7 = alloca i64, align 8
  %8 = alloca %struct.cbb_st, align 8
  %9 = alloca i32, align 4
  %10 = alloca ptr, align 8
  %11 = alloca ptr, align 8
  %12 = alloca i32, align 4
  store ptr %0, ptr %4, align 8, !tbaa !34
  store ptr %1, ptr %5, align 8, !tbaa !36
  call void @llvm.lifetime.start.p0(i64 8, ptr %6) #4
  %13 = load ptr, ptr %5, align 8, !tbaa !36
  store ptr %13, ptr %6, align 8, !tbaa !6
  call void @llvm.lifetime.start.p0(i64 8, ptr %7) #4
  call void @llvm.lifetime.start.p0(i64 32, ptr %8) #4
  %14 = load ptr, ptr %4, align 8, !tbaa !34
  %15 = call i32 @CBB_add_asn1(ptr noundef %14, ptr noundef %8, i8 noundef zeroext -96)
  %16 = icmp ne i32 %15, 0
  br i1 %16, label %18, label %17

17:                                               ; preds = %2
  store i32 0, ptr %3, align 4
  store i32 1, ptr %9, align 4
  br label %52

18:                                               ; preds = %2
  store i64 0, ptr %7, align 8, !tbaa !17
  br label %19

19:                                               ; preds = %46, %18
  %20 = load i64, ptr %7, align 8, !tbaa !17
  %21 = load ptr, ptr %6, align 8, !tbaa !6
  %22 = call i64 @sk_num(ptr noundef %21)
  %23 = icmp ult i64 %20, %22
  br i1 %23, label %24, label %49

24:                                               ; preds = %19
  call void @llvm.lifetime.start.p0(i64 8, ptr %10) #4
  %25 = load ptr, ptr %6, align 8, !tbaa !6
  %26 = load i64, ptr %7, align 8, !tbaa !17
  %27 = call ptr @sk_value(ptr noundef %25, i64 noundef %26)
  store ptr %27, ptr %10, align 8, !tbaa !19
  call void @llvm.lifetime.start.p0(i64 8, ptr %11) #4
  call void @llvm.lifetime.start.p0(i64 4, ptr %12) #4
  %28 = load ptr, ptr %10, align 8, !tbaa !19
  %29 = call i32 @i2d_X509(ptr noundef %28, ptr noundef null)
  store i32 %29, ptr %12, align 4, !tbaa !15
  %30 = load i32, ptr %12, align 4, !tbaa !15
  %31 = icmp slt i32 %30, 0
  br i1 %31, label %41, label %32

32:                                               ; preds = %24
  %33 = load i32, ptr %12, align 4, !tbaa !15
  %34 = sext i32 %33 to i64
  %35 = call i32 @CBB_add_space(ptr noundef %8, ptr noundef %11, i64 noundef %34)
  %36 = icmp ne i32 %35, 0
  br i1 %36, label %37, label %41

37:                                               ; preds = %32
  %38 = load ptr, ptr %10, align 8, !tbaa !19
  %39 = call i32 @i2d_X509(ptr noundef %38, ptr noundef %11)
  %40 = icmp slt i32 %39, 0
  br i1 %40, label %41, label %42

41:                                               ; preds = %37, %32, %24
  store i32 0, ptr %3, align 4
  store i32 1, ptr %9, align 4
  br label %43

42:                                               ; preds = %37
  store i32 0, ptr %9, align 4
  br label %43

43:                                               ; preds = %42, %41
  call void @llvm.lifetime.end.p0(i64 4, ptr %12) #4
  call void @llvm.lifetime.end.p0(i64 8, ptr %11) #4
  call void @llvm.lifetime.end.p0(i64 8, ptr %10) #4
  %44 = load i32, ptr %9, align 4
  switch i32 %44, label %52 [
    i32 0, label %45
  ]

45:                                               ; preds = %43
  br label %46

46:                                               ; preds = %45
  %47 = load i64, ptr %7, align 8, !tbaa !17
  %48 = add i64 %47, 1
  store i64 %48, ptr %7, align 8, !tbaa !17
  br label %19, !llvm.loop !37

49:                                               ; preds = %19
  %50 = load ptr, ptr %4, align 8, !tbaa !34
  %51 = call i32 @CBB_flush(ptr noundef %50)
  store i32 %51, ptr %3, align 4
  store i32 1, ptr %9, align 4
  br label %52

52:                                               ; preds = %49, %43, %17
  call void @llvm.lifetime.end.p0(i64 32, ptr %8) #4
  call void @llvm.lifetime.end.p0(i64 8, ptr %7) #4
  call void @llvm.lifetime.end.p0(i64 8, ptr %6) #4
  %53 = load i32, ptr %3, align 4
  ret i32 %53
}